(lp0
(lp1
F271.0400085449219
aF129.489990234375
aF39.430625915527344
aa(lp2
F270.79998779296875
aF133.43003845214844
aF39.430625915527344
aa(lp3
F237.6999969482422
aF129.75
aF39.430625915527344
aa(lp4
F237.6999969482422
aF133.239990234375
aF39.430625915527344
aa(lp5
F216.26998901367188
aF129.75
aF39.430625915527344
aa(lp6
F216.26998901367188
aF133.239990234375
aF39.430625915527344
aa(lp7
F191.3199920654297
aF129.75
aF39.430625915527344
aa(lp8
F191.3199920654297
aF133.24002075195312
aF39.430625915527344
aa(lp9
F157.1899871826172
aF129.75
aF39.430625915527344
aa(lp10
F157.1899871826172
aF133.24002075195312
aF39.430625915527344
aa(lp11
F338.97998046875
aF301.2599792480469
aF39.430625915527344
aa(lp12
F128.94998168945312
aF129.75
aF39.430625915527344
aa(lp13
F128.94998168945312
aF133.24002075195312
aF39.430625915527344
aa(lp14
F119.46998596191406
aF129.75
aF39.430625915527344
aa(lp15
F105.43998718261719
aF133.24002075195312
aF39.430625915527344
aa(lp16
F92.11000061035156
aF39.709999084472656
aF39.430625915527344
aa(lp17
F88.6199951171875
aF26.559999465942383
aF39.430625915527344
aa(lp18
F92.11000061035156
aF30.820009231567383
aF39.430625915527344
aa(lp19
F88.6199951171875
aF15.279999732971191
aF39.430625915527344
aa(lp20
F92.11000061035156
aF86.95999908447266
aF39.430625915527344
aa(lp21
F88.6199951171875
aF72.6199951171875
aF39.430625915527344
aa(lp22
F335.489990234375
aF298.80999755859375
aF39.430625915527344
aa(lp23
F92.1099853515625
aF95.44999694824219
aF39.430625915527344
aa(lp24
F88.61998748779297
aF95.44999694824219
aF39.430625915527344
aa(lp25
F92.1099853515625
aF113.05999755859375
aF39.430625915527344
aa(lp26
F88.61998748779297
aF103.37999725341797
aF39.430625915527344
aa(lp27
F92.1099853515625
aF159.9499969482422
aF39.430625915527344
aa(lp28
F88.61998748779297
aF145.83999633789062
aF39.430625915527344
aa(lp29
F92.1099853515625
aF176.88999938964844
aF39.430625915527344
aa(lp30
F88.61998748779297
aF169.84999084472656
aF39.430625915527344
aa(lp31
F-2.4200193881988525
aF187.97000122070312
aF39.430625915527344
aa(lp32
F1.5599803924560547
aF187.9700164794922
aF39.430625915527344
aa(lp33
F338.97998046875
aF249.42999267578125
aF39.430625915527344
aa(lp34
F-2.4200096130371094
aF149.8300018310547
aF39.430625915527344
aa(lp35
F1.5599901676177979
aF149.83001708984375
aF39.430625915527344
aa(lp36
F-2.4200096130371094
aF120.0199966430664
aF39.430625915527344
aa(lp37
F1.5599901676177979
aF120.02001953125
aF39.430625915527344
aa(lp38
F-2.4200048446655273
aF79.31999969482422
aF39.430625915527344
aa(lp39
F1.5599950551986694
aF79.32001495361328
aF39.430625915527344
aa(lp40
F-2.4200048446655273
aF48.70000076293945
aF39.430625915527344
aa(lp41
F1.5599950551986694
aF48.70001983642578
aF39.430625915527344
aa(lp42
F-2.420001268386841
aF17.779998779296875
aF39.430625915527344
aa(lp43
F1.55999755859375
aF22.440019607543945
aF39.430625915527344
aa(lp44
F335.489990234375
aF249.42999267578125
aF39.430625915527344
aa(lp45
F21.770000457763672
aF-1.9599987268447876
aF39.430625915527344
aa(lp46
F14.139999389648438
aF2.0200109481811523
aF39.430625915527344
aa(lp47
F47.939998626708984
aF-1.9599950313568115
aF39.430625915527344
aa(lp48
F47.939998626708984
aF2.020014524459839
aF39.430625915527344
aa(lp49
F72.5999984741211
aF-1.9599950313568115
aF39.430625915527344
aa(lp50
F62.12999725341797
aF2.020014524459839
aF39.430625915527344
aa(lp51
F116.63999938964844
aF-1.95999014377594
aF39.430625915527344
aa(lp52
F110.02999877929688
aF2.02001953125
aF39.430625915527344
aa(lp53
F137.7899932861328
aF-1.95999014377594
aF39.430625915527344
aa(lp54
F126.38999938964844
aF2.02001953125
aF39.430625915527344
aa(lp55
F338.97998046875
aF226.75
aF39.430625915527344
aa(lp56
F185.55999755859375
aF-1.9599803686141968
aF39.430625915527344
aa(lp57
F173.14999389648438
aF2.02001953125
aF39.430625915527344
aa(lp58
F209.5800018310547
aF-1.9599803686141968
aF39.430625915527344
aa(lp59
F209.5800018310547
aF2.02001953125
aF39.430625915527344
aa(lp60
F244.09999084472656
aF-1.9599803686141968
aF39.430625915527344
aa(lp61
F244.09999084472656
aF2.02001953125
aF39.430625915527344
aa(lp62
F278.80999755859375
aF-1.9599803686141968
aF39.430625915527344
aa(lp63
F278.80999755859375
aF2.02001953125
aF39.430625915527344
aa(lp64
F316.8500061035156
aF-1.9599803686141968
aF39.430625915527344
aa(lp65
F306.28997802734375
aF2.02001953125
aF39.430625915527344
aa(lp66
F334.8299865722656
aF217.0800018310547
aF39.430625915527344
aa(lp67
F363.0
aF-1.9599609375
aF39.430625915527344
aa(lp68
F356.79998779296875
aF2.0200390815734863
aF39.430625915527344
aa(lp69
F378.17999267578125
aF-1.9599609375
aF39.430625915527344
aa(lp70
F378.17999267578125
aF2.0200390815734863
aF39.430625915527344
aa(lp71
F396.4499816894531
aF19.9200382232666
aF39.430625915527344
aa(lp72
F392.4700012207031
aF19.9200382232666
aF39.430625915527344
aa(lp73
F395.9599914550781
aF164.1699981689453
aF39.430625915527344
aa(lp74
F392.4700012207031
aF164.1699981689453
aF39.430625915527344
aa(lp75
F395.9599914550781
aF105.38999938964844
aF39.430625915527344
aa(lp76
F392.4700012207031
aF105.38999938964844
aF39.430625915527344
aa(lp77
F395.9599914550781
aF68.86003875732422
aF39.430625915527344
aa(lp78
F392.4700012207031
aF68.86003875732422
aF39.430625915527344
aa(lp79
F395.9599914550781
aF308.2099914550781
aF39.430625915527344
aa(lp80
F392.4700012207031
aF308.2099914550781
aF39.430625915527344
aa(lp81
F395.9599914550781
aF249.42999267578125
aF39.430625915527344
aa(lp82
F392.4700012207031
aF249.42999267578125
aF39.430625915527344
aa(lp83
F395.9599914550781
aF212.89999389648438
aF39.430625915527344
aa(lp84
F392.4700012207031
aF212.89999389648438
aF39.430625915527344
aa(lp85
F1.5099804401397705
aF308.2099914550781
aF39.430625915527344
aa(lp86
F-1.2800195217132568
aF309.4599914550781
aF39.430625915527344
aa(lp87
F1.5099804401397705
aF249.42999267578125
aF39.430625915527344
aa(lp88
F-1.980019450187683
aF249.42999267578125
aF39.430625915527344
aa(lp89
F121.22996520996094
aF195.00999450683594
aF39.430625915527344
aa(lp90
F105.22998809814453
aF198.5
aF39.430625915527344
aa(lp91
F118.94999694824219
aF55.84000015258789
aF39.430625915527344
aa(lp92
F111.56999969482422
aF59.33001708984375
aF39.430625915527344
aa(lp93
F141.12998962402344
aF55.84000015258789
aF39.430625915527344
aa(lp94
F125.9699935913086
aF59.33001708984375
aF39.430625915527344
aa(lp95
F22.17997932434082
aF326.9700012207031
aF39.430625915527344
aa(lp96
F22.17997932434082
aF330.4599914550781
aF39.430625915527344
aa(lp97
F92.10997772216797
aF308.2099914550781
aF39.430625915527344
aa(lp98
F46.14997863769531
aF326.9700012207031
aF39.430625915527344
aa(lp99
F46.14997863769531
aF330.4599914550781
aF39.430625915527344
aa(lp100
F65.3499755859375
aF326.9700012207031
aF39.430625915527344
aa(lp101
F60.10997772216797
aF330.4599914550781
aF39.430625915527344
aa(lp102
F381.3399963378906
aF327.04998779296875
aF39.430625915527344
aa(lp103
F381.3399658203125
aF330.53997802734375
aF39.430625915527344
aa(lp104
F366.53997802734375
aF327.04998779296875
aF39.430625915527344
aa(lp105
F358.39996337890625
aF330.53997802734375
aF39.430625915527344
aa(lp106
F320.8699645996094
aF327.04998779296875
aF39.430625915527344
aa(lp107
F306.76995849609375
aF330.53997802734375
aF39.430625915527344
aa(lp108
F88.61997985839844
aF295.32000732421875
aF39.430625915527344
aa(lp109
F301.3399658203125
aF327.04998779296875
aF39.430625915527344
aa(lp110
F301.3399658203125
aF330.53997802734375
aF39.430625915527344
aa(lp111
F262.5999755859375
aF327.04998779296875
aF39.430625915527344
aa(lp112
F262.5999755859375
aF330.53997802734375
aF39.430625915527344
aa(lp113
F232.19998168945312
aF326.9700012207031
aF39.430625915527344
aa(lp114
F232.19998168945312
aF330.4599914550781
aF39.430625915527344
aa(lp115
F199.94998168945312
aF326.9700012207031
aF39.430625915527344
aa(lp116
F199.94998168945312
aF330.4599914550781
aF39.430625915527344
aa(lp117
F173.11997985839844
aF326.9700012207031
aF39.430625915527344
aa(lp118
F173.11997985839844
aF330.4599914550781
aF39.430625915527344
aa(lp119
F92.10997772216797
aF249.42999267578125
aF39.430625915527344
aa(lp120
F124.73997497558594
aF326.9700012207031
aF39.430625915527344
aa(lp121
F114.3499755859375
aF330.4599914550781
aF39.430625915527344
aa(lp122
F142.91998291015625
aF326.9700012207031
aF39.430625915527344
aa(lp123
F142.91998291015625
aF330.4599914550781
aF39.430625915527344
aa(lp124
F142.91998291015625
aF195.26998901367188
aF39.430625915527344
aa(lp125
F142.91998291015625
aF198.75999450683594
aF39.430625915527344
aa(lp126
F178.7699737548828
aF195.26998901367188
aF39.430625915527344
aa(lp127
F178.7699737548828
aF198.75999450683594
aF39.430625915527344
aa(lp128
F217.50997924804688
aF195.26998901367188
aF39.430625915527344
aa(lp129
F217.50997924804688
aF198.75999450683594
aF39.430625915527344
aa(lp130
F88.61997985839844
aF249.42999267578125
aF39.430625915527344
aa(lp131
F256.3499755859375
aF195.5699920654297
aF39.430625915527344
aa(lp132
F256.3499755859375
aF199.05999755859375
aF39.430625915527344
aa(lp133
F299.39996337890625
aF195.5699920654297
aF39.430625915527344
aa(lp134
F299.39996337890625
aF199.05999755859375
aF39.430625915527344
aa(lp135
F158.0800018310547
aF27.18000030517578
aF39.430625915527344
aa(lp136
F153.75999450683594
aF18.889999389648438
aF39.430625915527344
aa(lp137
F157.25
aF39.709999084472656
aF39.430625915527344
aa(lp138
F153.75999450683594
aF28.899999618530273
aF39.430625915527344
aa(lp139
F191.0800018310547
aF55.84000015258789
aF39.430625915527344
aa(lp140
F172.2899932861328
aF59.33001708984375
aF39.430625915527344
aa(lp141
F92.1099853515625
aF227.22000122070312
aF39.430625915527344
aa(lp142
F202.5500030517578
aF55.84000015258789
aF39.430625915527344
aa(lp143
F202.5500030517578
aF59.33001708984375
aF39.430625915527344
aa(lp144
F234.26998901367188
aF55.84001922607422
aF39.430625915527344
aa(lp145
F234.26998901367188
aF59.33001708984375
aF39.430625915527344
aa(lp146
F272.2900085449219
aF55.84000015258789
aF39.430625915527344
aa(lp147
F272.2900085449219
aF59.33003616333008
aF39.430625915527344
aa(lp148
F299.3999938964844
aF55.84000015258789
aF39.430625915527344
aa(lp149
F299.3999938964844
aF59.33003616333008
aF39.430625915527344
aa(lp150
F299.3999938964844
aF129.75
aF39.430625915527344
aa(lp151
F299.3999938964844
aF133.2400360107422
aF39.430625915527344
aa(lp152
F88.61998748779297
aF212.89999389648438
aF39.430625915527344
aa.